target datalayout = "e-m:e-p270:32:32-p271:32:32-p272:64:64-i64:64-i128:128-f80:128-n8:16:32:64-S128"
target triple = "x86_64-pc-linux-gnu"

%struct.aiMaterialProperty = type { %struct.aiString, i32, i32, i32, i32, ptr }
%struct.aiString = type { i32, [1024 x i8] }

@.str = private unnamed_addr constant [18 x i8] c"Material property\00", align 1
@.str.3 = private unnamed_addr constant [29 x i8] c" was found, but is no string\00", align 1
@.str.4 = private unnamed_addr constant [10 x i8] c"$tex.file\00", align 1
@.str.5 = private unnamed_addr constant [13 x i8] c"$tex.mapping\00", align 1
@.str.6 = private unnamed_addr constant [12 x i8] c"$tex.uvwsrc\00", align 1
@.str.7 = private unnamed_addr constant [11 x i8] c"$tex.blend\00", align 1
@.str.8 = private unnamed_addr constant [8 x i8] c"$tex.op\00", align 1
@.str.9 = private unnamed_addr constant [14 x i8] c"$tex.mapmodeu\00", align 1
@.str.10 = private unnamed_addr constant [14 x i8] c"$tex.mapmodev\00", align 1
@.str.11 = private unnamed_addr constant [11 x i8] c"$tex.flags\00", align 1

; Function Attrs: inlinehint mustprogress uwtable
define internal noundef i32 @_ZL18aiGetMaterialFloatPK10aiMaterialPKcjjPf(ptr noundef %0, ptr noundef %1, i32 noundef %2, i32 noundef %3, ptr noundef %4) #5 {
  %6 = alloca ptr, align 8
  %7 = alloca ptr, align 8
  %8 = alloca i32, align 4
  %9 = alloca i32, align 4
  %10 = alloca ptr, align 8
  store ptr %0, ptr %6, align 8
  store ptr %1, ptr %7, align 8
  store i32 %2, ptr %8, align 4
  store i32 %3, ptr %9, align 4
  store ptr %4, ptr %10, align 8
  %11 = load ptr, ptr %6, align 8
  %12 = load ptr, ptr %7, align 8
  %13 = load i32, ptr %8, align 4
  %14 = load i32, ptr %9, align 4
  %15 = load ptr, ptr %10, align 8
  %16 = call i32 @aiGetMaterialFloatArray(ptr noundef %11, ptr noundef %12, i32 noundef %13, i32 noundef %14, ptr noundef %15, ptr noundef null)
  ret i32 %16
}

; Function Attrs: inlinehint mustprogress uwtable
define internal noundef i32 @_ZL20aiGetMaterialIntegerPK10aiMaterialPKcjjPi(ptr noundef %0, ptr noundef %1, i32 noundef %2, i32 noundef %3, ptr noundef %4) #5 {
  %6 = alloca ptr, align 8
  %7 = alloca ptr, align 8
  %8 = alloca i32, align 4
  %9 = alloca i32, align 4
  %10 = alloca ptr, align 8
  store ptr %0, ptr %6, align 8
  store ptr %1, ptr %7, align 8
  store i32 %2, ptr %8, align 4
  store i32 %3, ptr %9, align 4
  store ptr %4, ptr %10, align 8
  %11 = load ptr, ptr %6, align 8
  %12 = load ptr, ptr %7, align 8
  %13 = load i32, ptr %8, align 4
  %14 = load i32, ptr %9, align 4
  %15 = load ptr, ptr %10, align 8
  %16 = call i32 @aiGetMaterialIntegerArray(ptr noundef %11, ptr noundef %12, i32 noundef %13, i32 noundef %14, ptr noundef %15, ptr noundef null)
  ret i32 %16
}

; Function Attrs: mustprogress uwtable
define i32 @aiGetMaterialString(ptr noundef %0, ptr noundef %1, i32 noundef %2, i32 noundef %3, ptr noundef %4) #3 {
  %6 = alloca i32, align 4
  %7 = alloca ptr, align 8
  %8 = alloca ptr, align 8
  %9 = alloca i32, align 4
  %10 = alloca i32, align 4
  %11 = alloca ptr, align 8
  %12 = alloca ptr, align 8
  %13 = alloca i32, align 4
  store ptr %0, ptr %7, align 8
  store ptr %1, ptr %8, align 8
  store i32 %2, ptr %9, align 4
  store i32 %3, ptr %10, align 4
  store ptr %4, ptr %11, align 8
  call void @llvm.lifetime.start.p0(i64 8, ptr %12) #17
  %14 = load ptr, ptr %7, align 8
  %15 = load ptr, ptr %8, align 8
  %16 = load i32, ptr %9, align 4
  %17 = load i32, ptr %10, align 4
  %18 = call i32 @aiGetMaterialProperty(ptr noundef %14, ptr noundef %15, i32 noundef %16, i32 noundef %17, ptr noundef %12)
  %19 = load ptr, ptr %12, align 8
  %20 = icmp ne ptr %19, null
  br i1 %20, label %22, label %21

21:                                               ; preds = %5
  store i32 -1, ptr %6, align 4
  store i32 1, ptr %13, align 4
  br label %49

22:                                               ; preds = %5
  %23 = load ptr, ptr %12, align 8
  %24 = getelementptr inbounds nuw %struct.aiMaterialProperty, ptr %23, i32 0, i32 4
  %25 = load i32, ptr %24, align 8
  %26 = icmp eq i32 3, %25
  br i1 %26, label %27, label %46

27:                                               ; preds = %22
  %28 = load ptr, ptr %12, align 8
  %29 = getelementptr inbounds nuw %struct.aiMaterialProperty, ptr %28, i32 0, i32 5
  %30 = load ptr, ptr %29, align 8
  %31 = load i32, ptr %30, align 4
  %32 = load ptr, ptr %11, align 8
  %33 = getelementptr inbounds nuw %struct.aiString, ptr %32, i32 0, i32 0
  store i32 %31, ptr %33, align 4
  %34 = load ptr, ptr %11, align 8
  %35 = getelementptr inbounds nuw %struct.aiString, ptr %34, i32 0, i32 1
  %36 = getelementptr inbounds [1024 x i8], ptr %35, i64 0, i64 0
  %37 = load ptr, ptr %12, align 8
  %38 = getelementptr inbounds nuw %struct.aiMaterialProperty, ptr %37, i32 0, i32 5
  %39 = load ptr, ptr %38, align 8
  %40 = getelementptr inbounds i8, ptr %39, i64 4
  %41 = load ptr, ptr %11, align 8
  %42 = getelementptr inbounds nuw %struct.aiString, ptr %41, i32 0, i32 0
  %43 = load i32, ptr %42, align 4
  %44 = add i32 %43, 1
  %45 = zext i32 %44 to i64
  call void @llvm.memcpy.p0.p0.i64(ptr align 4 %36, ptr align 1 %40, i64 %45, i1 false)
  br label %48

46:                                               ; preds = %22
  %47 = call noundef ptr @_ZN6Assimp13DefaultLogger3getEv()
  call void @_ZN6Assimp6Logger5errorIJRA18_KcRPS2_RA29_S2_EEEvDpOT_(ptr noundef nonnull align 8 dereferenceable(12) %47, ptr noundef nonnull align 1 dereferenceable(18) @.str, ptr noundef nonnull align 8 dereferenceable(8) %8, ptr noundef nonnull align 1 dereferenceable(29) @.str.3)
  store i32 -1, ptr %6, align 4
  store i32 1, ptr %13, align 4
  br label %49

48:                                               ; preds = %27
  store i32 0, ptr %6, align 4
  store i32 1, ptr %13, align 4
  br label %49

49:                                               ; preds = %48, %46, %21
  call void @llvm.lifetime.end.p0(i64 8, ptr %12) #17
  %50 = load i32, ptr %6, align 4
  ret i32 %50
}

; Function Attrs: mustprogress uwtable
define i32 @aiGetMaterialTexture(ptr noundef %0, i32 noundef %1, i32 noundef %2, ptr noundef %3, ptr noundef %4, ptr noundef %5, ptr noundef %6, ptr noundef %7, ptr noundef %8, ptr noundef %9) #3 {
  %11 = alloca i32, align 4
  %12 = alloca ptr, align 8
  %13 = alloca i32, align 4
  %14 = alloca i32, align 4
  %15 = alloca ptr, align 8
  %16 = alloca ptr, align 8
  %17 = alloca ptr, align 8
  %18 = alloca ptr, align 8
  %19 = alloca ptr, align 8
  %20 = alloca ptr, align 8
  %21 = alloca ptr, align 8
  %22 = alloca i32, align 4
  %23 = alloca i32, align 4
  store ptr %0, ptr %12, align 8
  store i32 %1, ptr %13, align 4
  store i32 %2, ptr %14, align 4
  store ptr %3, ptr %15, align 8
  store ptr %4, ptr %16, align 8
  store ptr %5, ptr %17, align 8
  store ptr %6, ptr %18, align 8
  store ptr %7, ptr %19, align 8
  store ptr %8, ptr %20, align 8
  store ptr %9, ptr %21, align 8
  %24 = load ptr, ptr %12, align 8
  %25 = load i32, ptr %13, align 4
  %26 = load i32, ptr %14, align 4
  %27 = load ptr, ptr %15, align 8
  %28 = call i32 @aiGetMaterialString(ptr noundef %24, ptr noundef @.str.4, i32 noundef %25, i32 noundef %26, ptr noundef %27)
  %29 = icmp ne i32 0, %28
  br i1 %29, label %30, label %31

30:                                               ; preds = %10
  store i32 -1, ptr %11, align 4
  br label %98

31:                                               ; preds = %10
  call void @llvm.lifetime.start.p0(i64 4, ptr %22) #17
  store i32 0, ptr %22, align 4
  %32 = load ptr, ptr %12, align 8
  %33 = load i32, ptr %13, align 4
  %34 = load i32, ptr %14, align 4
  %35 = call noundef i32 @_ZL20aiGetMaterialIntegerPK10aiMaterialPKcjjPi(ptr noundef %32, ptr noundef @.str.5, i32 noundef %33, i32 noundef %34, ptr noundef %22)
  call void @llvm.lifetime.start.p0(i64 4, ptr %23) #17
  %36 = load i32, ptr %22, align 4
  store i32 %36, ptr %23, align 4
  %37 = load ptr, ptr %16, align 8
  %38 = icmp ne ptr %37, null
  br i1 %38, label %39, label %42

39:                                               ; preds = %31
  %40 = load i32, ptr %23, align 4
  %41 = load ptr, ptr %16, align 8
  store i32 %40, ptr %41, align 4
  br label %42

42:                                               ; preds = %39, %31
  %43 = load i32, ptr %23, align 4
  %44 = icmp eq i32 0, %43
  br i1 %44, label %45, label %54

45:                                               ; preds = %42
  %46 = load ptr, ptr %17, align 8
  %47 = icmp ne ptr %46, null
  br i1 %47, label %48, label %54

48:                                               ; preds = %45
  %49 = load ptr, ptr %12, align 8
  %50 = load i32, ptr %13, align 4
  %51 = load i32, ptr %14, align 4
  %52 = load ptr, ptr %17, align 8
  %53 = call noundef i32 @_ZL20aiGetMaterialIntegerPK10aiMaterialPKcjjPi(ptr noundef %49, ptr noundef @.str.6, i32 noundef %50, i32 noundef %51, ptr noundef %52)
  br label %54

54:                                               ; preds = %48, %45, %42
  %55 = load ptr, ptr %18, align 8
  %56 = icmp ne ptr %55, null
  br i1 %56, label %57, label %63

57:                                               ; preds = %54
  %58 = load ptr, ptr %12, align 8
  %59 = load i32, ptr %13, align 4
  %60 = load i32, ptr %14, align 4
  %61 = load ptr, ptr %18, align 8
  %62 = call noundef i32 @_ZL18aiGetMaterialFloatPK10aiMaterialPKcjjPf(ptr noundef %58, ptr noundef @.str.7, i32 noundef %59, i32 noundef %60, ptr noundef %61)
  br label %63

63:                                               ; preds = %57, %54
  %64 = load ptr, ptr %19, align 8
  %65 = icmp ne ptr %64, null
  br i1 %65, label %66, label %72

66:                                               ; preds = %63
  %67 = load ptr, ptr %12, align 8
  %68 = load i32, ptr %13, align 4
  %69 = load i32, ptr %14, align 4
  %70 = load ptr, ptr %19, align 8
  %71 = call noundef i32 @_ZL20aiGetMaterialIntegerPK10aiMaterialPKcjjPi(ptr noundef %67, ptr noundef @.str.8, i32 noundef %68, i32 noundef %69, ptr noundef %70)
  br label %72

72:                                               ; preds = %66, %63
  %73 = load ptr, ptr %20, align 8
  %74 = icmp ne ptr %73, null
  br i1 %74, label %75, label %88

75:                                               ; preds = %72
  %76 = load ptr, ptr %12, align 8
  %77 = load i32, ptr %13, align 4
  %78 = load i32, ptr %14, align 4
  %79 = load ptr, ptr %20, align 8
  %80 = getelementptr inbounds i32, ptr %79, i64 0
  %81 = call noundef i32 @_ZL20aiGetMaterialIntegerPK10aiMaterialPKcjjPi(ptr noundef %76, ptr noundef @.str.9, i32 noundef %77, i32 noundef %78, ptr noundef %80)
  %82 = load ptr, ptr %12, align 8
  %83 = load i32, ptr %13, align 4
  %84 = load i32, ptr %14, align 4
  %85 = load ptr, ptr %20, align 8
  %86 = getelementptr inbounds i32, ptr %85, i64 1
  %87 = call noundef i32 @_ZL20aiGetMaterialIntegerPK10aiMaterialPKcjjPi(ptr noundef %82, ptr noundef @.str.10, i32 noundef %83, i32 noundef %84, ptr noundef %86)
  br label %88

88:                                               ; preds = %75, %72
  %89 = load ptr, ptr %21, align 8
  %90 = icmp ne ptr %89, null
  br i1 %90, label %91, label %97

91:                                               ; preds = %88
  %92 = load ptr, ptr %12, align 8
  %93 = load i32, ptr %13, align 4
  %94 = load i32, ptr %14, align 4
  %95 = load ptr, ptr %21, align 8
  %96 = call noundef i32 @_ZL20aiGetMaterialIntegerPK10aiMaterialPKcjjPi(ptr noundef %92, ptr noundef @.str.11, i32 noundef %93, i32 noundef %94, ptr noundef %95)
  br label %97

97:                                               ; preds = %91, %88
  store i32 0, ptr %11, align 4
  call void @llvm.lifetime.end.p0(i64 4, ptr %23) #17
  call void @llvm.lifetime.end.p0(i64 4, ptr %22) #17
  br label %98

98:                                               ; preds = %97, %30
  %99 = load i32, ptr %11, align 4
  ret i32 %99
}