; Function Attrs: mustprogress uwtable
define range(i32 -1, 1) i32 @aiGetMaterialTexture(ptr noundef readonly captures(none) %0, i32 noundef %1, i32 noundef %2, ptr noundef writeonly captures(none) %3, ptr noundef writeonly captures(address_is_null) %4, ptr noundef writeonly captures(address_is_null) %5, ptr noundef %6, ptr noundef writeonly captures(address_is_null) %7, ptr noundef writeonly captures(address_is_null) %8, ptr noundef writeonly captures(address_is_null) %9) local_unnamed_addr #3 {
  %11 = alloca ptr, align 8
  %12 = alloca ptr, align 8
  %13 = alloca i32, align 4
  call void @llvm.lifetime.start.p0(i64 8, ptr nonnull %11)
  store ptr @.str.4, ptr %11, align 8
  call void @llvm.lifetime.start.p0(i64 8, ptr nonnull %12) #24
  %14 = call i32 @aiGetMaterialProperty(ptr noundef readonly %0, ptr noundef nonnull @.str.4, i32 noundef %1, i32 noundef %2, ptr noundef nonnull %12)
  %15 = load ptr, ptr %12, align 8
  %.not.i = icmp eq ptr %15, null
  br i1 %.not.i, label %aiGetMaterialString.exit.thread, label %16

16:                                               ; preds = %10
  %17 = getelementptr inbounds nuw i8, ptr %15, i64 1040
  %18 = load i32, ptr %17, align 8
  %19 = icmp eq i32 %18, 3
  br i1 %19, label %22, label %20

20:                                               ; preds = %16
  %21 = tail call noundef ptr @_ZN6Assimp13DefaultLogger3getEv()
  call void @_ZN6Assimp6Logger5errorIJRA18_KcRPS2_RA29_S2_EEEvDpOT_(ptr noundef nonnull align 8 dereferenceable(12) %21, ptr noundef nonnull align 1 dereferenceable(18) @.str, ptr noundef nonnull align 8 dereferenceable(8) %11, ptr noundef nonnull align 1 dereferenceable(29) @.str.3)
  br label %aiGetMaterialString.exit.thread

aiGetMaterialString.exit.thread:                  ; preds = %20, %10
  call void @llvm.lifetime.end.p0(i64 8, ptr nonnull %12) #24
  call void @llvm.lifetime.end.p0(i64 8, ptr nonnull %11)
  br label %54

22:                                               ; preds = %16
  %23 = getelementptr inbounds nuw i8, ptr %15, i64 1048
  %24 = load ptr, ptr %23, align 8
  %25 = load i32, ptr %24, align 4
  store i32 %25, ptr %3, align 4
  %26 = getelementptr inbounds nuw i8, ptr %3, i64 4
  %27 = load ptr, ptr %23, align 8
  %28 = getelementptr inbounds nuw i8, ptr %27, i64 4
  %29 = add i32 %25, 1
  %30 = zext i32 %29 to i64
  tail call void @llvm.memcpy.p0.p0.i64(ptr nonnull align 4 %26, ptr nonnull align 1 %28, i64 %30, i1 false)
  call void @llvm.lifetime.end.p0(i64 8, ptr nonnull %12) #24
  call void @llvm.lifetime.end.p0(i64 8, ptr nonnull %11)
  call void @llvm.lifetime.start.p0(i64 4, ptr nonnull %13) #24
  store i32 0, ptr %13, align 4
  %31 = call noundef range(i32 -1, 1) i32 @aiGetMaterialIntegerArray(ptr noundef readonly %0, ptr noundef nonnull @.str.5, i32 noundef %1, i32 noundef %2, ptr noundef nonnull %13, ptr noundef null)
  %32 = load i32, ptr %13, align 4
  %.not47 = icmp eq ptr %4, null
  br i1 %.not47, label %34, label %33

33:                                               ; preds = %22
  store i32 %32, ptr %4, align 4
  br label %34

34:                                               ; preds = %33, %22
  %35 = icmp eq i32 %32, 0
  %36 = icmp ne ptr %5, null
  %or.cond = and i1 %36, %35
  br i1 %or.cond, label %37, label %39

37:                                               ; preds = %34
  %38 = tail call noundef range(i32 -1, 1) i32 @aiGetMaterialIntegerArray(ptr noundef readonly %0, ptr noundef nonnull @.str.6, i32 noundef %1, i32 noundef %2, ptr noundef nonnull %5, ptr noundef null)
  br label %39

39:                                               ; preds = %37, %34
  %.not48 = icmp eq ptr %6, null
  br i1 %.not48, label %42, label %40

40:                                               ; preds = %39
  %41 = tail call noundef range(i32 -1, 1) i32 @aiGetMaterialFloatArray(ptr noundef readonly %0, ptr noundef nonnull @.str.7, i32 noundef %1, i32 noundef %2, ptr noundef nonnull %6, ptr noundef null)
  br label %42

42:                                               ; preds = %40, %39
  %.not49 = icmp eq ptr %7, null
  br i1 %.not49, label %45, label %43

43:                                               ; preds = %42
  %44 = tail call noundef range(i32 -1, 1) i32 @aiGetMaterialIntegerArray(ptr noundef readonly %0, ptr noundef nonnull @.str.8, i32 noundef %1, i32 noundef %2, ptr noundef nonnull %7, ptr noundef null)
  br label %45

45:                                               ; preds = %43, %42
  %.not50 = icmp eq ptr %8, null
  br i1 %.not50, label %50, label %46

46:                                               ; preds = %45
  %47 = tail call noundef range(i32 -1, 1) i32 @aiGetMaterialIntegerArray(ptr noundef readonly %0, ptr noundef nonnull @.str.9, i32 noundef %1, i32 noundef %2, ptr noundef nonnull %8, ptr noundef null)
  %48 = getelementptr inbounds nuw i8, ptr %8, i64 4
  %49 = tail call noundef range(i32 -1, 1) i32 @aiGetMaterialIntegerArray(ptr noundef readonly %0, ptr noundef nonnull @.str.10, i32 noundef %1, i32 noundef %2, ptr noundef nonnull %48, ptr noundef null)
  br label %50

50:                                               ; preds = %46, %45
  %.not51 = icmp eq ptr %9, null
  br i1 %.not51, label %53, label %51

51:                                               ; preds = %50
  %52 = tail call noundef range(i32 -1, 1) i32 @aiGetMaterialIntegerArray(ptr noundef readonly %0, ptr noundef nonnull @.str.11, i32 noundef %1, i32 noundef %2, ptr noundef nonnull %9, ptr noundef null)
  br label %53

53:                                               ; preds = %51, %50
  call void @llvm.lifetime.end.p0(i64 4, ptr nonnull %13) #24
  br label %54

54:                                               ; preds = %aiGetMaterialString.exit.thread, %53
  %.0 = phi i32 [ 0, %53 ], [ -1, %aiGetMaterialString.exit.thread ]
  ret i32 %.0
}